target datalayout = "e-m:e-p270:32:32-p271:32:32-p272:64:64-i64:64-i128:128-f80:128-n8:16:32:64-S128"
target triple = "x86_64-pc-linux-gnu"

@.str.47 = private unnamed_addr constant [23 x i8] c"!#$%&()*+:;<>?@[]^{|}~\00", align 1

; Function Attrs: nounwind uwtable
define dso_local i32 @isValidAuxChar(i32 noundef %0) #0 {
  %2 = alloca i32, align 4
  store i32 %0, ptr %2, align 4, !tbaa !10
  %3 = call ptr @__ctype_b_loc() #19
  %4 = load ptr, ptr %3, align 8, !tbaa !50
  %5 = load i32, ptr %2, align 4, !tbaa !10
  %6 = sext i32 %5 to i64
  %7 = getelementptr inbounds i16, ptr %4, i64 %6
  %8 = load i16, ptr %7, align 2, !tbaa !48
  %9 = zext i16 %8 to i32
  %10 = and i32 %9, 8
  %11 = icmp ne i32 %10, 0
  br i1 %11, label %16, label %12

12:                                               ; preds = %1
  %13 = load i32, ptr %2, align 4, !tbaa !10
  %14 = call ptr @strchr(ptr noundef @.str.47, i32 noundef %13) #16
  %15 = icmp eq ptr %14, null
  br label %16

16:                                               ; preds = %12, %1
  %17 = phi i1 [ true, %1 ], [ %15, %12 ]
  %18 = zext i1 %17 to i32
  ret i32 %18
}