; Function Attrs: mustprogress nofree nounwind willreturn memory(read, inaccessiblemem: none) uwtable
define dso_local range(i32 0, 2) i32 @isValidAuxChar(i32 noundef %0) local_unnamed_addr #9 {
  %2 = tail call ptr @__ctype_b_loc() #21
  %3 = load ptr, ptr %2, align 8, !tbaa !97
  %4 = sext i32 %0 to i64
  %5 = getelementptr inbounds i16, ptr %3, i64 %4
  %6 = load i16, ptr %5, align 2, !tbaa !42
  %7 = and i16 %6, 8
  %.not = icmp eq i16 %7, 0
  br i1 %.not, label %8, label %11

8:                                                ; preds = %1
  %memchr = tail call ptr @memchr(ptr noundef nonnull dereferenceable(1) @.str.47, i32 %0, i64 23)
  %9 = icmp eq ptr %memchr, null
  %10 = zext i1 %9 to i32
  br label %11

11:                                               ; preds = %8, %1
  %12 = phi i32 [ 1, %1 ], [ %10, %8 ]
  ret i32 %12
}